; Function Attrs: nounwind uwtable
define ptr @l_Lean_IR_FnBody_simpCase(ptr noundef %0) local_unnamed_addr #0 {
  %2 = tail call ptr @l_Lean_IR_FnBody_flatten(ptr noundef %0) #3
  %3 = getelementptr inbounds nuw i8, ptr %2, i64 8
  %4 = load ptr, ptr %3, align 8, !tbaa !4
  %5 = ptrtoint ptr %4 to i64
  %6 = and i64 %5, 1
  %.not = icmp eq i64 %6, 0
  br i1 %.not, label %7, label %lean_inc.exit41

7:                                                ; preds = %1
  %.val.i = load i32, ptr %4, align 4, !tbaa !8
  %8 = icmp sgt i32 %.val.i, 0
  br i1 %8, label %9, label %11, !prof !11

9:                                                ; preds = %7
  %10 = add nuw i32 %.val.i, 1
  store i32 %10, ptr %4, align 4, !tbaa !8
  br label %lean_inc.exit41

11:                                               ; preds = %7
  %.not.i47 = icmp eq i32 %.val.i, 0
  br i1 %.not.i47, label %lean_inc.exit41, label %12

12:                                               ; preds = %11
  tail call void @lean_inc_ref_cold(ptr noundef nonnull %4) #3
  br label %lean_inc.exit41

lean_inc.exit41:                                  ; preds = %12, %11, %9, %1
  %13 = getelementptr inbounds nuw i8, ptr %2, i64 16
  %14 = load ptr, ptr %13, align 8, !tbaa !4
  %15 = ptrtoint ptr %14 to i64
  %16 = and i64 %15, 1
  %.not65 = icmp eq i64 %16, 0
  br i1 %.not65, label %17, label %lean_inc.exit40

17:                                               ; preds = %lean_inc.exit41
  %.val.i48 = load i32, ptr %14, align 4, !tbaa !8
  %18 = icmp sgt i32 %.val.i48, 0
  br i1 %18, label %19, label %21, !prof !11

19:                                               ; preds = %17
  %20 = add nuw i32 %.val.i48, 1
  store i32 %20, ptr %14, align 4, !tbaa !8
  br label %lean_inc.exit40

21:                                               ; preds = %17
  %.not.i49 = icmp eq i32 %.val.i48, 0
  br i1 %.not.i49, label %lean_inc.exit40, label %22

22:                                               ; preds = %21
  tail call void @lean_inc_ref_cold(ptr noundef nonnull %14) #3
  br label %lean_inc.exit40

lean_inc.exit40:                                  ; preds = %22, %21, %19, %lean_inc.exit41
  %23 = ptrtoint ptr %2 to i64
  %24 = and i64 %23, 1
  %.not66 = icmp eq i64 %24, 0
  br i1 %.not66, label %25, label %lean_dec.exit36

25:                                               ; preds = %lean_inc.exit40
  %26 = load i32, ptr %2, align 4, !tbaa !8
  %27 = icmp sgt i32 %26, 1
  br i1 %27, label %28, label %30, !prof !11

28:                                               ; preds = %25
  %29 = add nsw i32 %26, -1
  store i32 %29, ptr %2, align 4, !tbaa !8
  br label %lean_dec.exit36

30:                                               ; preds = %25
  %.not.i = icmp eq i32 %26, 0
  br i1 %.not.i, label %lean_dec.exit36, label %31

31:                                               ; preds = %30
  tail call void @lean_dec_ref_cold(ptr noundef nonnull %2) #3
  br label %lean_dec.exit36

lean_dec.exit36:                                  ; preds = %31, %30, %28, %lean_inc.exit40
  %32 = getelementptr i8, ptr %4, i64 8
  %.val46 = load i64, ptr %32, align 8, !tbaa !12
  %33 = tail call ptr @l_Array_mapMUnsafe_map___at_Lean_IR_FnBody_simpCase___spec__1(i64 noundef %.val46, i64 noundef 0, ptr noundef %4)
  br i1 %.not65, label %37, label %34

34:                                               ; preds = %lean_dec.exit36
  %35 = lshr i64 %15, 1
  %36 = trunc i64 %35 to i32
  br label %lean_obj_tag.exit

37:                                               ; preds = %lean_dec.exit36
  %38 = getelementptr i8, ptr %14, i64 4
  %.val.i52 = load i32, ptr %38, align 4
  %39 = lshr i32 %.val.i52, 24
  br label %lean_obj_tag.exit

lean_obj_tag.exit:                                ; preds = %34, %37
  %.0.i = phi i32 [ %36, %34 ], [ %39, %37 ]
  %40 = icmp eq i32 %.0.i, 10
  br i1 %40, label %41, label %lean_dec.exit

41:                                               ; preds = %lean_obj_tag.exit
  %42 = getelementptr inbounds nuw i8, ptr %14, i64 8
  %43 = load ptr, ptr %42, align 8, !tbaa !4
  %44 = ptrtoint ptr %43 to i64
  %45 = and i64 %44, 1
  %.not67 = icmp eq i64 %45, 0
  br i1 %.not67, label %46, label %lean_inc.exit39

46:                                               ; preds = %41
  %.val.i53 = load i32, ptr %43, align 4, !tbaa !8
  %47 = icmp sgt i32 %.val.i53, 0
  br i1 %47, label %48, label %50, !prof !11

48:                                               ; preds = %46
  %49 = add nuw i32 %.val.i53, 1
  store i32 %49, ptr %43, align 4, !tbaa !8
  br label %lean_inc.exit39

50:                                               ; preds = %46
  %.not.i54 = icmp eq i32 %.val.i53, 0
  br i1 %.not.i54, label %lean_inc.exit39, label %51

51:                                               ; preds = %50
  tail call void @lean_inc_ref_cold(ptr noundef nonnull %43) #3
  br label %lean_inc.exit39

lean_inc.exit39:                                  ; preds = %51, %50, %48, %41
  %52 = getelementptr inbounds nuw i8, ptr %14, i64 16
  %53 = load ptr, ptr %52, align 8, !tbaa !4
  %54 = ptrtoint ptr %53 to i64
  %55 = and i64 %54, 1
  %.not68 = icmp eq i64 %55, 0
  br i1 %.not68, label %56, label %lean_inc.exit38

56:                                               ; preds = %lean_inc.exit39
  %.val.i56 = load i32, ptr %53, align 4, !tbaa !8
  %57 = icmp sgt i32 %.val.i56, 0
  br i1 %57, label %58, label %60, !prof !11

58:                                               ; preds = %56
  %59 = add nuw i32 %.val.i56, 1
  store i32 %59, ptr %53, align 4, !tbaa !8
  br label %lean_inc.exit38

60:                                               ; preds = %56
  %.not.i57 = icmp eq i32 %.val.i56, 0
  br i1 %.not.i57, label %lean_inc.exit38, label %61

61:                                               ; preds = %60
  tail call void @lean_inc_ref_cold(ptr noundef nonnull %53) #3
  br label %lean_inc.exit38

lean_inc.exit38:                                  ; preds = %61, %60, %58, %lean_inc.exit39
  %62 = getelementptr inbounds nuw i8, ptr %14, i64 24
  %63 = load ptr, ptr %62, align 8, !tbaa !4
  %64 = ptrtoint ptr %63 to i64
  %65 = and i64 %64, 1
  %.not69 = icmp eq i64 %65, 0
  br i1 %.not69, label %66, label %lean_inc.exit37

66:                                               ; preds = %lean_inc.exit38
  %.val.i59 = load i32, ptr %63, align 4, !tbaa !8
  %67 = icmp sgt i32 %.val.i59, 0
  br i1 %67, label %68, label %70, !prof !11

68:                                               ; preds = %66
  %69 = add nuw i32 %.val.i59, 1
  store i32 %69, ptr %63, align 4, !tbaa !8
  br label %lean_inc.exit37

70:                                               ; preds = %66
  %.not.i60 = icmp eq i32 %.val.i59, 0
  br i1 %.not.i60, label %lean_inc.exit37, label %71

71:                                               ; preds = %70
  tail call void @lean_inc_ref_cold(ptr noundef nonnull %63) #3
  br label %lean_inc.exit37

lean_inc.exit37:                                  ; preds = %71, %70, %68, %lean_inc.exit38
  %72 = getelementptr inbounds nuw i8, ptr %14, i64 32
  %73 = load ptr, ptr %72, align 8, !tbaa !4
  %74 = ptrtoint ptr %73 to i64
  %75 = and i64 %74, 1
  %.not70 = icmp eq i64 %75, 0
  br i1 %.not70, label %76, label %lean_inc.exit

76:                                               ; preds = %lean_inc.exit37
  %.val.i62 = load i32, ptr %73, align 4, !tbaa !8
  %77 = icmp sgt i32 %.val.i62, 0
  br i1 %77, label %78, label %80, !prof !11

78:                                               ; preds = %76
  %79 = add nuw i32 %.val.i62, 1
  store i32 %79, ptr %73, align 4, !tbaa !8
  br label %lean_inc.exit

80:                                               ; preds = %76
  %.not.i63 = icmp eq i32 %.val.i62, 0
  br i1 %.not.i63, label %lean_inc.exit, label %81

81:                                               ; preds = %80
  tail call void @lean_inc_ref_cold(ptr noundef nonnull %73) #3
  br label %lean_inc.exit

lean_inc.exit:                                    ; preds = %81, %80, %78, %lean_inc.exit37
  br i1 %.not65, label %82, label %lean_dec.exit35

82:                                               ; preds = %lean_inc.exit
  %83 = load i32, ptr %14, align 4, !tbaa !8
  %84 = icmp sgt i32 %83, 1
  br i1 %84, label %85, label %87, !prof !11

85:                                               ; preds = %82
  %86 = add nsw i32 %83, -1
  store i32 %86, ptr %14, align 4, !tbaa !8
  br label %lean_dec.exit35

87:                                               ; preds = %82
  %.not.i42 = icmp eq i32 %83, 0
  br i1 %.not.i42, label %lean_dec.exit35, label %88

88:                                               ; preds = %87
  tail call void @lean_dec_ref_cold(ptr noundef nonnull %14) #3
  br label %lean_dec.exit35

lean_dec.exit35:                                  ; preds = %88, %87, %85, %lean_inc.exit
  %89 = getelementptr i8, ptr %73, i64 8
  %.val = load i64, ptr %89, align 8, !tbaa !12
  %90 = tail call ptr @l_Array_mapMUnsafe_map___at_Lean_IR_FnBody_simpCase___spec__2(i64 noundef %.val, i64 noundef 0, ptr noundef %73)
  %91 = tail call ptr @l___private_Lean_Compiler_IR_SimpCase_0__Lean_IR_mkSimpCase(ptr noundef %43, ptr noundef %53, ptr noundef %63, ptr noundef %90)
  %92 = ptrtoint ptr %90 to i64
  %93 = and i64 %92, 1
  %.not71 = icmp eq i64 %93, 0
  br i1 %.not71, label %94, label %lean_dec.exit

94:                                               ; preds = %lean_dec.exit35
  %95 = load i32, ptr %90, align 4, !tbaa !8
  %96 = icmp sgt i32 %95, 1
  br i1 %96, label %97, label %99, !prof !11

97:                                               ; preds = %94
  %98 = add nsw i32 %95, -1
  store i32 %98, ptr %90, align 4, !tbaa !8
  br label %lean_dec.exit

99:                                               ; preds = %94
  %.not.i44 = icmp eq i32 %95, 0
  br i1 %.not.i44, label %lean_dec.exit, label %100

100:                                              ; preds = %99
  tail call void @lean_dec_ref_cold(ptr noundef nonnull %90) #3
  br label %lean_dec.exit

lean_dec.exit:                                    ; preds = %lean_obj_tag.exit, %lean_dec.exit35, %97, %99, %100
  %.sink = phi ptr [ %91, %100 ], [ %91, %99 ], [ %91, %97 ], [ %91, %lean_dec.exit35 ], [ %14, %lean_obj_tag.exit ]
  %101 = tail call ptr @l_Lean_IR_reshape(ptr noundef %33, ptr noundef %.sink) #3
  ret ptr %101
}